target datalayout = "e-m:e-p270:32:32-p271:32:32-p272:64:64-i64:64-i128:128-f80:128-n8:16:32:64-S128"
target triple = "x86_64-pc-linux-gnu"

%struct.AVFilterContext = type { ptr, ptr, ptr, ptr, ptr, i32, ptr, ptr, i32, ptr, ptr, i32, i32, ptr, ptr, ptr, ptr, i32, ptr, i32, i32 }
%struct.AVPixFmtDescriptor = type { ptr, i8, i8, i8, i64, [4 x %struct.AVComponentDescriptor], ptr }
%struct.AVComponentDescriptor = type { i32, i32, i32, i32, i32 }
%struct.ShufflePlanesContext = type { ptr, i32, [4 x i32], i32 }

; Function Attrs: nounwind uwtable
define internal i32 @query_formats(ptr noundef %0, ptr noundef %1, ptr noundef %2) #0 {
  %4 = alloca i32, align 4
  %5 = alloca ptr, align 8
  %6 = alloca ptr, align 8
  %7 = alloca ptr, align 8
  %8 = alloca ptr, align 8
  %9 = alloca ptr, align 8
  %10 = alloca i32, align 4
  %11 = alloca i32, align 4
  %12 = alloca i32, align 4
  %13 = alloca ptr, align 8
  %14 = alloca i32, align 4
  %15 = alloca i32, align 4
  store ptr %0, ptr %5, align 8, !tbaa !4
  store ptr %1, ptr %6, align 8, !tbaa !9
  store ptr %2, ptr %7, align 8, !tbaa !9
  call void @llvm.lifetime.start.p0(i64 8, ptr %8) #6
  store ptr null, ptr %8, align 8, !tbaa !12
  call void @llvm.lifetime.start.p0(i64 8, ptr %9) #6
  %16 = load ptr, ptr %5, align 8, !tbaa !4
  %17 = getelementptr inbounds nuw %struct.AVFilterContext, ptr %16, i32 0, i32 9
  %18 = load ptr, ptr %17, align 8, !tbaa !14
  store ptr %18, ptr %9, align 8, !tbaa !26
  call void @llvm.lifetime.start.p0(i64 4, ptr %10) #6
  call void @llvm.lifetime.start.p0(i64 4, ptr %11) #6
  call void @llvm.lifetime.start.p0(i64 4, ptr %12) #6
  store i32 0, ptr %10, align 4, !tbaa !28
  br label %19

19:                                               ; preds = %114, %3
  %20 = load i32, ptr %10, align 4, !tbaa !28
  %21 = call ptr @av_pix_fmt_desc_get(i32 noundef %20)
  %22 = icmp ne ptr %21, null
  br i1 %22, label %23, label %117

23:                                               ; preds = %19
  call void @llvm.lifetime.start.p0(i64 8, ptr %13) #6
  %24 = load i32, ptr %10, align 4, !tbaa !28
  %25 = call ptr @av_pix_fmt_desc_get(i32 noundef %24)
  store ptr %25, ptr %13, align 8, !tbaa !29
  call void @llvm.lifetime.start.p0(i64 4, ptr %14) #6
  %26 = load i32, ptr %10, align 4, !tbaa !28
  %27 = call i32 @av_pix_fmt_count_planes(i32 noundef %26)
  store i32 %27, ptr %14, align 4, !tbaa !28
  %28 = load ptr, ptr %13, align 8, !tbaa !29
  %29 = getelementptr inbounds nuw %struct.AVPixFmtDescriptor, ptr %28, i32 0, i32 4
  %30 = load i64, ptr %29, align 8, !tbaa !31
  %31 = and i64 %30, 2
  %32 = icmp ne i64 %31, 0
  br i1 %32, label %110, label %33

33:                                               ; preds = %23
  %34 = load ptr, ptr %13, align 8, !tbaa !29
  %35 = getelementptr inbounds nuw %struct.AVPixFmtDescriptor, ptr %34, i32 0, i32 4
  %36 = load i64, ptr %35, align 8, !tbaa !31
  %37 = and i64 %36, 8
  %38 = icmp ne i64 %37, 0
  br i1 %38, label %110, label %39

39:                                               ; preds = %33
  store i32 0, ptr %12, align 4, !tbaa !28
  br label %40

40:                                               ; preds = %95, %39
  %41 = load i32, ptr %12, align 4, !tbaa !28
  %42 = icmp slt i32 %41, 4
  br i1 %42, label %43, label %98

43:                                               ; preds = %40
  %44 = load ptr, ptr %9, align 8, !tbaa !26
  %45 = getelementptr inbounds nuw %struct.ShufflePlanesContext, ptr %44, i32 0, i32 2
  %46 = load i32, ptr %12, align 4, !tbaa !28
  %47 = sext i32 %46 to i64
  %48 = getelementptr inbounds [4 x i32], ptr %45, i64 0, i64 %47
  %49 = load i32, ptr %48, align 4, !tbaa !28
  %50 = load i32, ptr %14, align 4, !tbaa !28
  %51 = icmp sge i32 %49, %50
  br i1 %51, label %52, label %53

52:                                               ; preds = %43
  br label %98

53:                                               ; preds = %43
  %54 = load ptr, ptr %13, align 8, !tbaa !29
  %55 = getelementptr inbounds nuw %struct.AVPixFmtDescriptor, ptr %54, i32 0, i32 3
  %56 = load i8, ptr %55, align 2, !tbaa !34
  %57 = zext i8 %56 to i32
  %58 = icmp ne i32 %57, 0
  br i1 %58, label %65, label %59

59:                                               ; preds = %53
  %60 = load ptr, ptr %13, align 8, !tbaa !29
  %61 = getelementptr inbounds nuw %struct.AVPixFmtDescriptor, ptr %60, i32 0, i32 2
  %62 = load i8, ptr %61, align 1, !tbaa !35
  %63 = zext i8 %62 to i32
  %64 = icmp ne i32 %63, 0
  br i1 %64, label %65, label %94

65:                                               ; preds = %59, %53
  %66 = load i32, ptr %12, align 4, !tbaa !28
  %67 = icmp eq i32 %66, 1
  br i1 %67, label %71, label %68

68:                                               ; preds = %65
  %69 = load i32, ptr %12, align 4, !tbaa !28
  %70 = icmp eq i32 %69, 2
  br label %71

71:                                               ; preds = %68, %65
  %72 = phi i1 [ true, %65 ], [ %70, %68 ]
  %73 = zext i1 %72 to i32
  %74 = load ptr, ptr %9, align 8, !tbaa !26
  %75 = getelementptr inbounds nuw %struct.ShufflePlanesContext, ptr %74, i32 0, i32 2
  %76 = load i32, ptr %12, align 4, !tbaa !28
  %77 = sext i32 %76 to i64
  %78 = getelementptr inbounds [4 x i32], ptr %75, i64 0, i64 %77
  %79 = load i32, ptr %78, align 4, !tbaa !28
  %80 = icmp eq i32 %79, 1
  br i1 %80, label %89, label %81

81:                                               ; preds = %71
  %82 = load ptr, ptr %9, align 8, !tbaa !26
  %83 = getelementptr inbounds nuw %struct.ShufflePlanesContext, ptr %82, i32 0, i32 2
  %84 = load i32, ptr %12, align 4, !tbaa !28
  %85 = sext i32 %84 to i64
  %86 = getelementptr inbounds [4 x i32], ptr %83, i64 0, i64 %85
  %87 = load i32, ptr %86, align 4, !tbaa !28
  %88 = icmp eq i32 %87, 2
  br label %89

89:                                               ; preds = %81, %71
  %90 = phi i1 [ true, %71 ], [ %88, %81 ]
  %91 = zext i1 %90 to i32
  %92 = icmp ne i32 %73, %91
  br i1 %92, label %93, label %94

93:                                               ; preds = %89
  br label %98

94:                                               ; preds = %89, %59
  br label %95

95:                                               ; preds = %94
  %96 = load i32, ptr %12, align 4, !tbaa !28
  %97 = add nsw i32 %96, 1
  store i32 %97, ptr %12, align 4, !tbaa !28
  br label %40, !llvm.loop !36

98:                                               ; preds = %93, %52, %40
  %99 = load i32, ptr %12, align 4, !tbaa !28
  %100 = icmp ne i32 %99, 4
  br i1 %100, label %101, label %102

101:                                              ; preds = %98
  store i32 4, ptr %15, align 4
  br label %111

102:                                              ; preds = %98
  %103 = load i32, ptr %10, align 4, !tbaa !28
  %104 = sext i32 %103 to i64
  %105 = call i32 @ff_add_format(ptr noundef %8, i64 noundef %104)
  store i32 %105, ptr %11, align 4, !tbaa !28
  %106 = icmp slt i32 %105, 0
  br i1 %106, label %107, label %109

107:                                              ; preds = %102
  %108 = load i32, ptr %11, align 4, !tbaa !28
  store i32 %108, ptr %4, align 4
  store i32 1, ptr %15, align 4
  br label %111

109:                                              ; preds = %102
  br label %110

110:                                              ; preds = %109, %33, %23
  store i32 0, ptr %15, align 4
  br label %111

111:                                              ; preds = %110, %107, %101
  call void @llvm.lifetime.end.p0(i64 4, ptr %14) #6
  call void @llvm.lifetime.end.p0(i64 8, ptr %13) #6
  %112 = load i32, ptr %15, align 4
  switch i32 %112, label %123 [
    i32 0, label %113
    i32 4, label %114
  ]

113:                                              ; preds = %111
  br label %114

114:                                              ; preds = %113, %111
  %115 = load i32, ptr %10, align 4, !tbaa !28
  %116 = add nsw i32 %115, 1
  store i32 %116, ptr %10, align 4, !tbaa !28
  br label %19, !llvm.loop !38

117:                                              ; preds = %19
  %118 = load ptr, ptr %5, align 8, !tbaa !4
  %119 = load ptr, ptr %6, align 8, !tbaa !9
  %120 = load ptr, ptr %7, align 8, !tbaa !9
  %121 = load ptr, ptr %8, align 8, !tbaa !12
  %122 = call i32 @ff_set_common_formats2(ptr noundef %118, ptr noundef %119, ptr noundef %120, ptr noundef %121)
  store i32 %122, ptr %4, align 4
  store i32 1, ptr %15, align 4
  br label %123

123:                                              ; preds = %117, %111
  call void @llvm.lifetime.end.p0(i64 4, ptr %12) #6
  call void @llvm.lifetime.end.p0(i64 4, ptr %11) #6
  call void @llvm.lifetime.end.p0(i64 4, ptr %10) #6
  call void @llvm.lifetime.end.p0(i64 8, ptr %9) #6
  call void @llvm.lifetime.end.p0(i64 8, ptr %8) #6
  %124 = load i32, ptr %4, align 4
  ret i32 %124
}