; Function Attrs: nounwind uwtable
define internal i32 @query_formats(ptr noundef %0, ptr noundef %1, ptr noundef %2) #0 {
  %4 = alloca ptr, align 8
  call void @llvm.lifetime.start.p0(i64 8, ptr nonnull %4) #6
  store ptr null, ptr %4, align 8, !tbaa !4
  %5 = getelementptr inbounds nuw i8, ptr %0, i64 72
  %6 = load ptr, ptr %5, align 8, !tbaa !9
  %7 = tail call ptr @av_pix_fmt_desc_get(i32 noundef 0) #6
  %.not47 = icmp eq ptr %7, null
  br i1 %.not47, label %._crit_edge, label %.lr.ph

.lr.ph:                                           ; preds = %3
  %8 = getelementptr inbounds nuw i8, ptr %6, i64 12
  br label %9

9:                                                ; preds = %.lr.ph, %.thread
  %indvars.iv52 = phi i64 [ 0, %.lr.ph ], [ %indvars.iv.next53, %.thread ]
  %10 = trunc nuw nsw i64 %indvars.iv52 to i32
  %11 = call ptr @av_pix_fmt_desc_get(i32 noundef %10) #6
  %12 = call i32 @av_pix_fmt_count_planes(i32 noundef %10) #6
  %13 = getelementptr inbounds nuw i8, ptr %11, i64 16
  %14 = load i64, ptr %13, align 8, !tbaa !22
  %15 = and i64 %14, 10
  %or.cond = icmp eq i64 %15, 0
  br i1 %or.cond, label %.preheader, label %.thread

.preheader:                                       ; preds = %9
  %16 = getelementptr inbounds nuw i8, ptr %11, i64 10
  %17 = getelementptr inbounds nuw i8, ptr %11, i64 9
  br label %18

18:                                               ; preds = %.preheader, %30
  %indvars.iv = phi i64 [ 0, %.preheader ], [ %indvars.iv.next, %30 ]
  %19 = getelementptr inbounds nuw [4 x i32], ptr %8, i64 0, i64 %indvars.iv
  %20 = load i32, ptr %19, align 4, !tbaa !25
  %.not34 = icmp slt i32 %20, %12
  br i1 %.not34, label %21, label %.thread

21:                                               ; preds = %18
  %22 = load i8, ptr %16, align 2, !tbaa !26
  %.not35 = icmp eq i8 %22, 0
  br i1 %.not35, label %23, label %25

23:                                               ; preds = %21
  %24 = load i8, ptr %17, align 1, !tbaa !27
  %.not36 = icmp eq i8 %24, 0
  br i1 %.not36, label %30, label %25

25:                                               ; preds = %23, %21
  %26 = add i32 %20, -1
  %narrow = icmp ult i32 %26, 2
  %27 = trunc i64 %indvars.iv to i32
  %28 = add i32 %27, -3
  %29 = icmp ult i32 %28, -2
  %.not37 = xor i1 %29, %narrow
  br i1 %.not37, label %30, label %.thread

30:                                               ; preds = %23, %25
  %indvars.iv.next = add nuw nsw i64 %indvars.iv, 1
  %exitcond.not = icmp eq i64 %indvars.iv.next, 4
  br i1 %exitcond.not, label %31, label %18, !llvm.loop !28

31:                                               ; preds = %30
  %32 = call i32 @ff_add_format(ptr noundef nonnull %4, i64 noundef %indvars.iv52) #6
  %33 = icmp slt i32 %32, 0
  br i1 %33, label %.loopexit, label %.thread

.thread:                                          ; preds = %18, %25, %9, %31
  %indvars.iv.next53 = add nuw nsw i64 %indvars.iv52, 1
  %34 = trunc nuw i64 %indvars.iv.next53 to i32
  %35 = call ptr @av_pix_fmt_desc_get(i32 noundef %34) #6
  %.not = icmp eq ptr %35, null
  br i1 %.not, label %._crit_edge.loopexit, label %9, !llvm.loop !30

._crit_edge.loopexit:                             ; preds = %.thread
  %.pre = load ptr, ptr %4, align 8, !tbaa !4
  br label %._crit_edge

._crit_edge:                                      ; preds = %._crit_edge.loopexit, %3
  %36 = phi ptr [ %.pre, %._crit_edge.loopexit ], [ null, %3 ]
  %37 = call i32 @ff_set_common_formats2(ptr noundef %0, ptr noundef %1, ptr noundef %2, ptr noundef %36) #6
  br label %.loopexit

.loopexit:                                        ; preds = %31, %._crit_edge
  %.2 = phi i32 [ %37, %._crit_edge ], [ %32, %31 ]
  call void @llvm.lifetime.end.p0(i64 8, ptr nonnull %4) #6
  ret i32 %.2
}